target datalayout = "e-m:e-p270:32:32-p271:32:32-p272:64:64-i64:64-i128:128-f80:128-n8:16:32:64-S128"
target triple = "x86_64-pc-linux-gnu"

; Function Attrs: mustprogress uwtable
define linkonce_odr hidden noundef i32 @_Z13RUN_ALL_TESTSv() #4 comdat {
  %1 = call noundef ptr @_ZN7testing8UnitTest11GetInstanceEv()
  %2 = call noundef i32 @_ZN7testing8UnitTest3RunEv(ptr noundef nonnull align 8 dereferenceable(72) %1)
  ret i32 %2
}

; Function Attrs: mustprogress norecurse uwtable
define hidden noundef i32 @main(i32 noundef %0, ptr noundef %1) #8 {
  %3 = alloca i32, align 4
  %4 = alloca i32, align 4
  %5 = alloca ptr, align 8
  store i32 0, ptr %3, align 4
  store i32 %0, ptr %4, align 4
  store ptr %1, ptr %5, align 8
  %6 = load ptr, ptr %5, align 8
  %7 = getelementptr inbounds ptr, ptr %6, i64 0
  %8 = load ptr, ptr %7, align 8
  call void @_ZN6google17InitGoogleLoggingEPKc(ptr noundef %8)
  %9 = load ptr, ptr %5, align 8
  call void @_ZN7testing14InitGoogleTestEPiPPc(ptr noundef %4, ptr noundef %9)
  %10 = load ptr, ptr %5, align 8
  call void @_ZN7testing14InitGoogleMockEPiPPc(ptr noundef %4, ptr noundef %10)
  %11 = call noundef i32 @_Z13RUN_ALL_TESTSv()
  ret i32 %11
}